Certificate:
    Data:
        Version: 3 (0x2)
        Serial Number: 1 (0x1)
        Signature Algorithm: sha256WithRSAEncryption
        Issuer: CN=devcert
        Validity
            Not Before: Aug 23 08:16:51 2023 GMT
            Not After : Nov 25 08:16:51 2025 GMT
        Subject: CN=localhost
        Subject Public Key Info:
            Public Key Algorithm: rsaEncryption
                RSA Public-Key: (2048 bit)
                Modulus:
                    00:ef:60:e3:25:7a:a7:13:73:6f:d9:9c:30:fe:a6:
                    86:ee:17:8c:7f:22:a3:63:fb:a8:4b:09:0c:4a:75:
                    d2:cc:c5:0e:1d:db:b2:81:dc:85:b5:26:1f:39:16:
                    61:13:7c:a3:2f:0a:4c:6c:c9:c6:66:38:c5:a1:8b:
                    25:6b:82:4e:13:1a:8b:62:65:39:c5:63:51:34:89:
                    8a:2a:0b:94:15:1d:41:82:08:cf:fa:e6:45:2e:4e:
                    e2:60:b9:55:d8:bf:23:b8:62:d6:07:b6:bf:8b:3d:
                    55:68:ba:a7:d2:a3:2c:98:e0:ae:c9:70:f0:d1:dc:
                    de:10:37:f7:2c:1d:54:f1:45:e6:70:d9:42:cf:3d:
                    aa:c1:09:3b:13:21:c5:76:4d:75:c5:26:68:f2:23:
                    f3:a1:3f:19:3d:0f:fb:96:40:eb:fd:66:3d:bf:2d:
                    85:9b:4f:fa:25:32:76:f8:78:f3:81:2c:be:89:6d:
                    34:0d:c4:8d:35:12:6c:75:27:de:59:18:41:90:3a:
                    ad:b2:e8:9d:bc:42:29:7f:47:fb:41:98:3f:5c:64:
                    fb:d0:0f:5f:0e:0b:78:3f:65:37:7c:9b:27:de:a0:
                    d6:a3:80:7d:06:d4:13:94:28:f6:ee:8c:d4:fd:d3:
                    20:bd:52:a1:2d:04:e5:74:bf:84:0d:79:e5:a5:f0:
                    c0:27
                Exponent: 65537 (0x10001)
        X509v3 extensions:
            X509v3 Basic Constraints: critical
                CA:FALSE
            X509v3 Subject Key Identifier: 
                0E:42:76:D4:84:8F:C0:F8:FA:E5:6A:46:E0:8D:D7:C7:24:AD:36:03
            X509v3 Authority Key Identifier: 
                keyid:3E:F0:40:F5:C2:0C:FC:65:A0:B0:FB:CB:52:CC:E8:93:73:44:41:AD
                DirName:/CN=devcert
                serial:47:3B:A1:33:C0:61:49:75:49:6E:AA:BF:CE:D8:96:C8:B7:16:8B:29

            X509v3 Key Usage: critical
                Digital Signature, Key Encipherment
            X509v3 Extended Key Usage: 
                TLS Web Server Authentication
            X509v3 Subject Alternative Name: 
                DNS:localhost, DNS:*.localhost
    Signature Algorithm: sha256WithRSAEncryption
         32:5b:17:fb:1a:04:2a:5f:1a:87:d1:a4:29:c5:3e:aa:f6:98:
         ba:03:11:19:8b:17:07:c3:bb:5e:4a:98:6a:55:6f:e5:ee:15:
         92:5a:23:09:04:b4:e8:91:1e:4e:2d:fa:ba:7f:73:9d:f0:a9:
         86:5c:ca:c2:ef:80:37:03:86:a9:49:6c:77:d7:6c:c5:97:0b:
         35:52:69:84:7c:33:49:3f:50:43:ad:be:66:e3:b5:e4:d6:6b:
         6a:01:15:b4:a5:2b:da:b1:5e:29:25:e3:cb:a6:95:c3:aa:c8:
         0b:fa:b8:d2:69:a5:65:74:61:d5:96:da:bd:00:dc:8e:73:15:
         c4:aa:4a:f8:fa:1c:09:4a:9b:74:fe:31:25:77:bc:01:da:40:
         7d:ea:07:09:8a:15:de:3d:d8:1b:fe:03:70:64:30:4c:db:a1:
         00:06:2f:f1:e4:2f:1a:80:53:0b:3e:af:b4:34:53:29:28:17:
         4a:7a:46:a9:52:64:41:d5:5c:71:d1:e7:bd:45:2f:96:4e:ad:
         8e:fb:b8:4d:82:0e:d8:45:ea:3a:df:c2:f8:ef:f1:1c:45:86:
         62:6b:a6:40:07:c9:42:e5:6e:ad:68:02:45:d2:7f:e2:a8:ab:
         f9:47:7a:eb:89:f7:96:5a:8f:77:b8:10:67:57:9c:47:fd:40:
         dc:7b:fa:ec
-----BEGIN CERTIFICATE-----
MIIDaTCCAlGgAwIBAgIBATANBgkqhkiG9w0BAQsFADASMRAwDgYDVQQDDAdkZXZj
ZXJ0MB4XDTIzMDgyMzA4MTY1MVoXDTI1MTEyNTA4MTY1MVowFDESMBAGA1UEAwwJ
bG9jYWxob3N0MIIBIjANBgkqhkiG9w0BAQEFAAOCAQ8AMIIBCgKCAQEA72DjJXqn
E3Nv2Zww/qaG7heMfyKjY/uoSwkMSnXSzMUOHduygdyFtSYfORZhE3yjLwpMbMnG
ZjjFoYsla4JOExqLYmU5xWNRNImKKguUFR1BggjP+uZFLk7iYLlV2L8juGLWB7a/
iz1VaLqn0qMsmOCuyXDw0dzeEDf3LB1U8UXmcNlCzz2qwQk7EyHFdk11xSZo8iPz
oT8ZPQ/7lkDr/WY9vy2Fm0/6JTJ2+HjzgSy+iW00DcSNNRJsdSfeWRhBkDqtsuid
vEIpf0f7QZg/XGT70A9fDgt4P2U3fJsn3qDWo4B9BtQTlCj27ozU/dMgvVKhLQTl
dL+EDXnlpfDAJwIDAQABo4HHMIHEMAwGA1UdEwEB/wQCMAAwHQYDVR0OBBYEFA5C
dtSEj8D4+uVqRuCN18ckrTYDME0GA1UdIwRGMESAFD7wQPXCDPxloLD7y1LM6JNz
REGtoRakFDASMRAwDgYDVQQDDAdkZXZjZXJ0ghRHO6EzwGFJdUluqr/O2JbItxaL
KTAOBgNVHQ8BAf8EBAMCBaAwEwYDVR0lBAwwCgYIKwYBBQUHAwEwIQYDVR0RBBow
GIIJbG9jYWxob3N0ggsqLmxvY2FsaG9zdDANBgkqhkiG9w0BAQsFAAOCAQEAMlsX
+xoEKl8ah9GkKcU+qvaYugMRGYsXB8O7XkqYalVv5e4VklojCQS06JEeTi36un9z
nfCphlzKwu+ANwOGqUlsd9dsxZcLNVJphHwzST9QQ62+ZuO15NZragEVtKUr2rFe
KSXjy6aVw6rIC/q40mmlZXRh1ZbavQDcjnMVxKpK+PocCUqbdP4xJXe8AdpAfeoH
CYoV3j3YG/4DcGQwTNuhAAYv8eQvGoBTCz6vtDRTKSgXSnpGqVJkQdVccdHnvUUv
lk6tjvu4TYIO2EXqOt/C+O/xHEWGYmumQAfJQuVurWgCRdJ/4qir+Ud664n3llqP
d7gQZ1ecR/1A3Hv67A==
-----END CERTIFICATE-----
